; Function Attrs: mustprogress uwtable
define void @_ZN10open_spiel10backgammon16PositionToStringB5cxx11Ei(ptr dead_on_unwind noalias writable sret(%"class.std::__cxx11::basic_string") align 8 %0, i32 noundef %1) local_unnamed_addr #4 personality ptr @__gxx_personality_v0 {
  %3 = alloca %"class.std::allocator.12", align 1
  %4 = alloca %"class.std::allocator.12", align 1
  %5 = alloca %"class.std::allocator.12", align 1
  %6 = alloca %"class.std::allocator.12", align 1
  %7 = alloca %"class.absl::debian2::AlphaNum", align 8
  switch i32 %1, label %26 [
    i32 100, label %8
    i32 101, label %14
    i32 -1, label %20
  ]

8:                                                ; preds = %2
  call void @_ZNSaIcEC1Ev(ptr noundef nonnull align 1 dereferenceable(1) %4) #30
  %9 = invoke noundef ptr @_ZNSt7__cxx1112basic_stringIcSt11char_traitsIcESaIcEE13_M_local_dataEv(ptr noundef nonnull align 8 dereferenceable(32) %0)
          to label %.noexc unwind label %12

.noexc:                                           ; preds = %8
  invoke void @_ZNSt7__cxx1112basic_stringIcSt11char_traitsIcESaIcEE12_Alloc_hiderC1EPcRKS3_(ptr noundef nonnull align 8 dereferenceable(8) %0, ptr noundef %9, ptr noundef nonnull align 1 dereferenceable(1) %4)
          to label %.noexc5 unwind label %12

.noexc5:                                          ; preds = %.noexc
  invoke void @_ZNSt7__cxx1112basic_stringIcSt11char_traitsIcESaIcEE12_M_constructIPKcEEvT_S8_St20forward_iterator_tag(ptr noundef nonnull align 8 dereferenceable(32) %0, ptr noundef nonnull @.str.13, ptr noundef nonnull getelementptr inbounds (i8, ptr @.str.13, i64 3))
          to label %_ZNSt7__cxx1112basic_stringIcSt11char_traitsIcESaIcEEC2IS3_EEPKcRKS3_.exit unwind label %10

10:                                               ; preds = %.noexc5
  %11 = landingpad { ptr, i32 }
          cleanup
  call void @_ZNSaIcED2Ev(ptr noundef nonnull align 1 dereferenceable(1) %0) #30
  br label %common.resume

_ZNSt7__cxx1112basic_stringIcSt11char_traitsIcESaIcEEC2IS3_EEPKcRKS3_.exit: ; preds = %.noexc5
  call void @_ZNSaIcED1Ev(ptr noundef nonnull align 1 dereferenceable(1) %4) #30
  br label %37

12:                                               ; preds = %.noexc, %8
  %13 = landingpad { ptr, i32 }
          cleanup
  br label %common.resume

14:                                               ; preds = %2
  call void @_ZNSaIcEC1Ev(ptr noundef nonnull align 1 dereferenceable(1) %5) #30
  %15 = invoke noundef ptr @_ZNSt7__cxx1112basic_stringIcSt11char_traitsIcESaIcEE13_M_local_dataEv(ptr noundef nonnull align 8 dereferenceable(32) %0)
          to label %.noexc6 unwind label %18

.noexc6:                                          ; preds = %14
  invoke void @_ZNSt7__cxx1112basic_stringIcSt11char_traitsIcESaIcEE12_Alloc_hiderC1EPcRKS3_(ptr noundef nonnull align 8 dereferenceable(8) %0, ptr noundef %15, ptr noundef nonnull align 1 dereferenceable(1) %5)
          to label %.noexc7 unwind label %18

.noexc7:                                          ; preds = %.noexc6
  invoke void @_ZNSt7__cxx1112basic_stringIcSt11char_traitsIcESaIcEE12_M_constructIPKcEEvT_S8_St20forward_iterator_tag(ptr noundef nonnull align 8 dereferenceable(32) %0, ptr noundef nonnull @.str.14, ptr noundef nonnull getelementptr inbounds (i8, ptr @.str.14, i64 5))
          to label %_ZNSt7__cxx1112basic_stringIcSt11char_traitsIcESaIcEEC2IS3_EEPKcRKS3_.exit10 unwind label %16

16:                                               ; preds = %.noexc7
  %17 = landingpad { ptr, i32 }
          cleanup
  call void @_ZNSaIcED2Ev(ptr noundef nonnull align 1 dereferenceable(1) %0) #30
  br label %common.resume

_ZNSt7__cxx1112basic_stringIcSt11char_traitsIcESaIcEEC2IS3_EEPKcRKS3_.exit10: ; preds = %.noexc7
  call void @_ZNSaIcED1Ev(ptr noundef nonnull align 1 dereferenceable(1) %5) #30
  br label %37

18:                                               ; preds = %.noexc6, %14
  %19 = landingpad { ptr, i32 }
          cleanup
  br label %common.resume

20:                                               ; preds = %2
  call void @_ZNSaIcEC1Ev(ptr noundef nonnull align 1 dereferenceable(1) %6) #30
  %21 = invoke noundef ptr @_ZNSt7__cxx1112basic_stringIcSt11char_traitsIcESaIcEE13_M_local_dataEv(ptr noundef nonnull align 8 dereferenceable(32) %0)
          to label %.noexc11 unwind label %24

.noexc11:                                         ; preds = %20
  invoke void @_ZNSt7__cxx1112basic_stringIcSt11char_traitsIcESaIcEE12_Alloc_hiderC1EPcRKS3_(ptr noundef nonnull align 8 dereferenceable(8) %0, ptr noundef %21, ptr noundef nonnull align 1 dereferenceable(1) %6)
          to label %.noexc12 unwind label %24

.noexc12:                                         ; preds = %.noexc11
  invoke void @_ZNSt7__cxx1112basic_stringIcSt11char_traitsIcESaIcEE12_M_constructIPKcEEvT_S8_St20forward_iterator_tag(ptr noundef nonnull align 8 dereferenceable(32) %0, ptr noundef nonnull @.str.15, ptr noundef nonnull getelementptr inbounds (i8, ptr @.str.15, i64 4))
          to label %_ZNSt7__cxx1112basic_stringIcSt11char_traitsIcESaIcEEC2IS3_EEPKcRKS3_.exit15 unwind label %22

22:                                               ; preds = %.noexc12
  %23 = landingpad { ptr, i32 }
          cleanup
  call void @_ZNSaIcED2Ev(ptr noundef nonnull align 1 dereferenceable(1) %0) #30
  br label %common.resume

_ZNSt7__cxx1112basic_stringIcSt11char_traitsIcESaIcEEC2IS3_EEPKcRKS3_.exit15: ; preds = %.noexc12
  call void @_ZNSaIcED1Ev(ptr noundef nonnull align 1 dereferenceable(1) %6) #30
  br label %37

24:                                               ; preds = %.noexc11, %20
  %25 = landingpad { ptr, i32 }
          cleanup
  br label %common.resume

26:                                               ; preds = %2
  %27 = getelementptr inbounds nuw i8, ptr %7, i64 16
  %28 = call noundef ptr @_ZN4absl7debian216numbers_internal15FastIntToBufferEiPc(i32 noundef %1, ptr noundef nonnull %27)
  %29 = ptrtoint ptr %28 to i64
  %30 = ptrtoint ptr %27 to i64
  %31 = sub i64 %29, %30
  store ptr %27, ptr %7, align 8
  %32 = icmp sgt i64 %31, -1
  br i1 %32, label %_ZN4absl7debian28AlphaNumC2Ei.exit, label %33

33:                                               ; preds = %26
  call void @llvm.trap()
  unreachable

_ZN4absl7debian28AlphaNumC2Ei.exit:               ; preds = %26
  %34 = getelementptr inbounds nuw i8, ptr %7, i64 8
  store i64 %31, ptr %34, align 8
  call void @llvm.lifetime.start.p0(i64 1, ptr nonnull %3)
  call void @_ZNSaIcEC1Ev(ptr noundef nonnull align 1 dereferenceable(1) %3) #30, !noalias !6
  invoke void @_ZNSt7__cxx1112basic_stringIcSt11char_traitsIcESaIcEEC1EPKcmRKS3_(ptr noundef nonnull align 8 dereferenceable(32) %0, ptr noundef nonnull %27, i64 noundef %31, ptr noundef nonnull align 1 dereferenceable(1) %3)
          to label %_ZN4absl7debian26StrCatB5cxx11ERKNS0_8AlphaNumE.exit unwind label %35

common.resume:                                    ; preds = %24, %22, %18, %16, %12, %10, %35
  %.sink = phi ptr [ %3, %35 ], [ %4, %10 ], [ %4, %12 ], [ %5, %16 ], [ %5, %18 ], [ %6, %22 ], [ %6, %24 ]
  %common.resume.op = phi { ptr, i32 } [ %36, %35 ], [ %11, %10 ], [ %13, %12 ], [ %17, %16 ], [ %19, %18 ], [ %23, %22 ], [ %25, %24 ]
  call void @_ZNSaIcED1Ev(ptr noundef nonnull align 1 dereferenceable(1) %.sink) #30
  resume { ptr, i32 } %common.resume.op

35:                                               ; preds = %_ZN4absl7debian28AlphaNumC2Ei.exit
  %36 = landingpad { ptr, i32 }
          cleanup
  br label %common.resume

_ZN4absl7debian26StrCatB5cxx11ERKNS0_8AlphaNumE.exit: ; preds = %_ZN4absl7debian28AlphaNumC2Ei.exit
  call void @_ZNSaIcED1Ev(ptr noundef nonnull align 1 dereferenceable(1) %3) #30
  call void @llvm.lifetime.end.p0(i64 1, ptr nonnull %3)
  br label %37

37:                                               ; preds = %_ZN4absl7debian26StrCatB5cxx11ERKNS0_8AlphaNumE.exit, %_ZNSt7__cxx1112basic_stringIcSt11char_traitsIcESaIcEEC2IS3_EEPKcRKS3_.exit15, %_ZNSt7__cxx1112basic_stringIcSt11char_traitsIcESaIcEEC2IS3_EEPKcRKS3_.exit10, %_ZNSt7__cxx1112basic_stringIcSt11char_traitsIcESaIcEEC2IS3_EEPKcRKS3_.exit
  ret void
}